; Function Attrs: nounwind uwtable
define hidden void @_glfwSetWindowSizeLimitsWayland(ptr noundef readonly captures(none) %0, i32 noundef %1, i32 noundef %2, i32 noundef %3, i32 noundef %4) local_unnamed_addr #0 {
  %6 = getelementptr inbounds nuw i8, ptr %0, i64 984
  %7 = load ptr, ptr %6, align 8, !tbaa !160
  %.not = icmp eq ptr %7, null
  br i1 %.not, label %16, label %8

8:                                                ; preds = %5
  %9 = icmp eq i32 %1, -1
  %10 = icmp eq i32 %2, -1
  %or.cond = or i1 %9, %10
  %spec.select = select i1 %or.cond, i32 0, i32 %1
  %spec.select23 = select i1 %or.cond, i32 0, i32 %2
  %11 = icmp eq i32 %3, -1
  %12 = icmp eq i32 %4, -1
  %or.cond3 = or i1 %11, %12
  %.015 = select i1 %or.cond3, i32 0, i32 %3
  %.0 = select i1 %or.cond3, i32 0, i32 %4
  %13 = load ptr, ptr getelementptr inbounds nuw (i8, ptr @_glfw, i64 137744), align 8, !tbaa !211
  tail call void %13(ptr noundef nonnull %7, i32 noundef %spec.select, i32 noundef %spec.select23) #20
  %14 = load ptr, ptr getelementptr inbounds nuw (i8, ptr @_glfw, i64 137752), align 8, !tbaa !214
  %15 = load ptr, ptr %6, align 8, !tbaa !160
  tail call void %14(ptr noundef %15, i32 noundef %.015, i32 noundef %.0) #20
  br label %64

16:                                               ; preds = %5
  %17 = getelementptr inbounds nuw i8, ptr %0, i64 960
  %18 = load ptr, ptr %17, align 8, !tbaa !235
  %.not22 = icmp eq ptr %18, null
  br i1 %.not22, label %64, label %19

19:                                               ; preds = %16
  %20 = getelementptr inbounds nuw i8, ptr %0, i64 8
  %21 = load i32, ptr %20, align 8, !tbaa !215
  %.not.i = icmp eq i32 %21, 0
  br i1 %.not.i, label %50, label %22

22:                                               ; preds = %19
  %23 = getelementptr inbounds nuw i8, ptr %0, i64 104
  %24 = load i32, ptr %23, align 8, !tbaa !209
  %25 = icmp eq i32 %24, -1
  br i1 %25, label %36, label %26

26:                                               ; preds = %22
  %27 = getelementptr inbounds nuw i8, ptr %0, i64 108
  %28 = load i32, ptr %27, align 4, !tbaa !210
  %29 = icmp eq i32 %28, -1
  br i1 %29, label %36, label %30

30:                                               ; preds = %26
  %31 = getelementptr inbounds nuw i8, ptr %0, i64 1120
  %32 = load i32, ptr %31, align 8, !tbaa !162
  %.not30.i = icmp eq i32 %32, 0
  br i1 %.not30.i, label %36, label %33

33:                                               ; preds = %30
  %34 = add nsw i32 %24, 8
  %35 = add nsw i32 %28, 28
  br label %36

36:                                               ; preds = %33, %30, %26, %22
  %.024.i = phi i32 [ %34, %33 ], [ %24, %30 ], [ 0, %26 ], [ 0, %22 ]
  %.023.i = phi i32 [ %35, %33 ], [ %28, %30 ], [ 0, %26 ], [ 0, %22 ]
  %37 = getelementptr inbounds nuw i8, ptr %0, i64 112
  %38 = load i32, ptr %37, align 8, !tbaa !212
  %39 = icmp eq i32 %38, -1
  br i1 %39, label %updateXdgSizeLimits.exit, label %40

40:                                               ; preds = %36
  %41 = getelementptr inbounds nuw i8, ptr %0, i64 116
  %42 = load i32, ptr %41, align 4, !tbaa !213
  %43 = icmp eq i32 %42, -1
  br i1 %43, label %updateXdgSizeLimits.exit, label %44

44:                                               ; preds = %40
  %45 = getelementptr inbounds nuw i8, ptr %0, i64 1120
  %46 = load i32, ptr %45, align 8, !tbaa !162
  %.not31.i = icmp eq i32 %46, 0
  br i1 %.not31.i, label %updateXdgSizeLimits.exit, label %47

47:                                               ; preds = %44
  %48 = add nsw i32 %38, 8
  %49 = add nsw i32 %42, 28
  br label %updateXdgSizeLimits.exit

50:                                               ; preds = %19
  %51 = getelementptr inbounds nuw i8, ptr %0, i64 856
  %52 = load i32, ptr %51, align 8, !tbaa !138
  %53 = getelementptr inbounds nuw i8, ptr %0, i64 860
  %54 = load i32, ptr %53, align 4, !tbaa !140
  br label %updateXdgSizeLimits.exit

updateXdgSizeLimits.exit:                         ; preds = %36, %40, %44, %47, %50
  %.125.i = phi i32 [ %.024.i, %47 ], [ %.024.i, %44 ], [ %52, %50 ], [ %.024.i, %40 ], [ %.024.i, %36 ]
  %.1.i = phi i32 [ %.023.i, %47 ], [ %.023.i, %44 ], [ %54, %50 ], [ %.023.i, %40 ], [ %.023.i, %36 ]
  %.022.i = phi i32 [ %48, %47 ], [ %38, %44 ], [ %52, %50 ], [ 0, %40 ], [ 0, %36 ]
  %.0.i = phi i32 [ %49, %47 ], [ %42, %44 ], [ %54, %50 ], [ 0, %40 ], [ 0, %36 ]
  %55 = load ptr, ptr getelementptr inbounds nuw (i8, ptr @_glfw, i64 137528), align 8, !tbaa !136
  %56 = load ptr, ptr getelementptr inbounds nuw (i8, ptr @_glfw, i64 137520), align 8, !tbaa !93
  %57 = tail call i32 %56(ptr noundef nonnull %18) #20
  %58 = tail call ptr (ptr, i32, ptr, i32, i32, ...) %55(ptr noundef nonnull %18, i32 noundef 8, ptr noundef null, i32 noundef %57, i32 noundef 0, i32 noundef %.125.i, i32 noundef %.1.i) #20
  %59 = load ptr, ptr %17, align 8, !tbaa !235
  %60 = load ptr, ptr getelementptr inbounds nuw (i8, ptr @_glfw, i64 137528), align 8, !tbaa !136
  %61 = load ptr, ptr getelementptr inbounds nuw (i8, ptr @_glfw, i64 137520), align 8, !tbaa !93
  %62 = tail call i32 %61(ptr noundef %59) #20
  %63 = tail call ptr (ptr, i32, ptr, i32, i32, ...) %60(ptr noundef %59, i32 noundef 7, ptr noundef null, i32 noundef %62, i32 noundef 0, i32 noundef %.022.i, i32 noundef %.0.i) #20
  br label %64

64:                                               ; preds = %16, %updateXdgSizeLimits.exit, %8
  ret void
}